target datalayout = "e-m:e-p270:32:32-p271:32:32-p272:64:64-i64:64-i128:128-f80:128-n8:16:32:64-S128"
target triple = "x86_64-pc-linux-gnu"

%struct.lzma_outq = type { ptr, ptr, i64, ptr, i64, i64, i32, i32, i32 }
%struct.lzma_outbuf_s = type { ptr, ptr, i64, i64, i64, i8, i32, i64, i64, [0 x i8] }

; Function Attrs: inlinehint nounwind uwtable
define internal i64 @lzma_outq_outbuf_memusage(i64 noundef %0) #2 {
  %2 = alloca i64, align 8
  store i64 %0, ptr %2, align 8, !tbaa !4
  %3 = load i64, ptr %2, align 8, !tbaa !4
  %4 = add i64 64, %3
  ret i64 %4
}

; Function Attrs: nounwind uwtable
define internal void @free_one_cached_buffer(ptr noundef %0, ptr noundef %1) #0 {
  %3 = alloca ptr, align 8
  %4 = alloca ptr, align 8
  %5 = alloca ptr, align 8
  store ptr %0, ptr %3, align 8, !tbaa !10
  store ptr %1, ptr %4, align 8, !tbaa !10
  call void @llvm.lifetime.start.p0(i64 8, ptr %5) #4
  %6 = load ptr, ptr %3, align 8, !tbaa !10
  %7 = getelementptr inbounds nuw %struct.lzma_outq, ptr %6, i32 0, i32 3
  %8 = load ptr, ptr %7, align 8, !tbaa !12
  store ptr %8, ptr %5, align 8, !tbaa !17
  %9 = load ptr, ptr %5, align 8, !tbaa !17
  %10 = getelementptr inbounds nuw %struct.lzma_outbuf_s, ptr %9, i32 0, i32 0
  %11 = load ptr, ptr %10, align 8, !tbaa !17
  %12 = load ptr, ptr %3, align 8, !tbaa !10
  %13 = getelementptr inbounds nuw %struct.lzma_outq, ptr %12, i32 0, i32 3
  store ptr %11, ptr %13, align 8, !tbaa !12
  %14 = load ptr, ptr %3, align 8, !tbaa !10
  %15 = getelementptr inbounds nuw %struct.lzma_outq, ptr %14, i32 0, i32 7
  %16 = load i32, ptr %15, align 4, !tbaa !18
  %17 = add i32 %16, -1
  store i32 %17, ptr %15, align 4, !tbaa !18
  %18 = load ptr, ptr %5, align 8, !tbaa !17
  %19 = getelementptr inbounds nuw %struct.lzma_outbuf_s, ptr %18, i32 0, i32 2
  %20 = load i64, ptr %19, align 8, !tbaa !4
  %21 = call i64 @lzma_outq_outbuf_memusage(i64 noundef %20)
  %22 = load ptr, ptr %3, align 8, !tbaa !10
  %23 = getelementptr inbounds nuw %struct.lzma_outq, ptr %22, i32 0, i32 4
  %24 = load i64, ptr %23, align 8, !tbaa !19
  %25 = sub i64 %24, %21
  store i64 %25, ptr %23, align 8, !tbaa !19
  %26 = load ptr, ptr %5, align 8, !tbaa !17
  %27 = load ptr, ptr %4, align 8, !tbaa !10
  call void @lzma_free(ptr noundef %26, ptr noundef %27)
  call void @llvm.lifetime.end.p0(i64 8, ptr %5) #4
  ret void
}

; Function Attrs: nounwind uwtable
define dso_local void @lzma_outq_clear_cache2(ptr noundef %0, ptr noundef %1, i64 noundef %2) #0 {
  %4 = alloca ptr, align 8
  %5 = alloca ptr, align 8
  %6 = alloca i64, align 8
  store ptr %0, ptr %4, align 8, !tbaa !10
  store ptr %1, ptr %5, align 8, !tbaa !10
  store i64 %2, ptr %6, align 8, !tbaa !4
  %7 = load ptr, ptr %4, align 8, !tbaa !10
  %8 = getelementptr inbounds nuw %struct.lzma_outq, ptr %7, i32 0, i32 3
  %9 = load ptr, ptr %8, align 8, !tbaa !12
  %10 = icmp eq ptr %9, null
  br i1 %10, label %11, label %12

11:                                               ; preds = %3
  br label %35

12:                                               ; preds = %3
  br label %13

13:                                               ; preds = %20, %12
  %14 = load ptr, ptr %4, align 8, !tbaa !10
  %15 = getelementptr inbounds nuw %struct.lzma_outq, ptr %14, i32 0, i32 3
  %16 = load ptr, ptr %15, align 8, !tbaa !12
  %17 = getelementptr inbounds nuw %struct.lzma_outbuf_s, ptr %16, i32 0, i32 0
  %18 = load ptr, ptr %17, align 8, !tbaa !17
  %19 = icmp ne ptr %18, null
  br i1 %19, label %20, label %23

20:                                               ; preds = %13
  %21 = load ptr, ptr %4, align 8, !tbaa !10
  %22 = load ptr, ptr %5, align 8, !tbaa !10
  call void @free_one_cached_buffer(ptr noundef %21, ptr noundef %22)
  br label %13, !llvm.loop !20

23:                                               ; preds = %13
  %24 = load ptr, ptr %4, align 8, !tbaa !10
  %25 = getelementptr inbounds nuw %struct.lzma_outq, ptr %24, i32 0, i32 3
  %26 = load ptr, ptr %25, align 8, !tbaa !12
  %27 = getelementptr inbounds nuw %struct.lzma_outbuf_s, ptr %26, i32 0, i32 2
  %28 = load i64, ptr %27, align 8, !tbaa !4
  %29 = load i64, ptr %6, align 8, !tbaa !4
  %30 = icmp ne i64 %28, %29
  br i1 %30, label %31, label %34

31:                                               ; preds = %23
  %32 = load ptr, ptr %4, align 8, !tbaa !10
  %33 = load ptr, ptr %5, align 8, !tbaa !10
  call void @free_one_cached_buffer(ptr noundef %32, ptr noundef %33)
  br label %34

34:                                               ; preds = %31, %23
  br label %35

35:                                               ; preds = %34, %11
  ret void
}