; Function Attrs: nounwind uwtable
define dso_local void @lzma_outq_clear_cache2(ptr noundef captures(none) %0, ptr noundef %1, i64 noundef %2) local_unnamed_addr #1 {
  %4 = getelementptr inbounds nuw i8, ptr %0, i64 24
  %5 = load ptr, ptr %4, align 8, !tbaa !4
  %6 = icmp eq ptr %5, null
  br i1 %6, label %30, label %.preheader

.preheader:                                       ; preds = %3
  %7 = load ptr, ptr %5, align 8, !tbaa !12
  %.not11 = icmp eq ptr %7, null
  br i1 %.not11, label %._crit_edge, label %.lr.ph

.lr.ph:                                           ; preds = %.preheader
  %8 = getelementptr inbounds nuw i8, ptr %0, i64 52
  %9 = getelementptr inbounds nuw i8, ptr %0, i64 32
  br label %10

10:                                               ; preds = %.lr.ph, %10
  %11 = phi ptr [ %7, %.lr.ph ], [ %20, %10 ]
  %12 = phi ptr [ %5, %.lr.ph ], [ %19, %10 ]
  store ptr %11, ptr %4, align 8, !tbaa !4
  %13 = load i32, ptr %8, align 4, !tbaa !13
  %14 = add i32 %13, -1
  store i32 %14, ptr %8, align 4, !tbaa !13
  %15 = getelementptr inbounds nuw i8, ptr %12, i64 16
  %16 = load i64, ptr %15, align 8, !tbaa !14
  %17 = load i64, ptr %9, align 8, !tbaa !15
  %reass.sub = sub i64 %17, %16
  %18 = add i64 %reass.sub, -64
  store i64 %18, ptr %9, align 8, !tbaa !15
  tail call void @lzma_free(ptr noundef nonnull %12, ptr noundef %1) #6
  %19 = load ptr, ptr %4, align 8, !tbaa !4
  %20 = load ptr, ptr %19, align 8, !tbaa !12
  %.not = icmp eq ptr %20, null
  br i1 %.not, label %._crit_edge, label %10, !llvm.loop !18

._crit_edge:                                      ; preds = %10, %.preheader
  %.lcssa10 = phi ptr [ %5, %.preheader ], [ %19, %10 ]
  %21 = getelementptr inbounds nuw i8, ptr %.lcssa10, i64 16
  %22 = load i64, ptr %21, align 8, !tbaa !14
  %.not7 = icmp eq i64 %22, %2
  br i1 %.not7, label %30, label %23

23:                                               ; preds = %._crit_edge
  store ptr null, ptr %4, align 8, !tbaa !4
  %24 = getelementptr inbounds nuw i8, ptr %0, i64 52
  %25 = load i32, ptr %24, align 4, !tbaa !13
  %26 = add i32 %25, -1
  store i32 %26, ptr %24, align 4, !tbaa !13
  %27 = getelementptr inbounds nuw i8, ptr %0, i64 32
  %28 = load i64, ptr %27, align 8, !tbaa !15
  %reass.sub13 = sub i64 %28, %22
  %29 = add i64 %reass.sub13, -64
  store i64 %29, ptr %27, align 8, !tbaa !15
  tail call void @lzma_free(ptr noundef nonnull %.lcssa10, ptr noundef %1) #6
  br label %30

30:                                               ; preds = %._crit_edge, %23, %3
  ret void
}